target datalayout = "e-m:e-p270:32:32-p271:32:32-p272:64:64-i64:64-i128:128-f80:128-n8:16:32:64-S128"
target triple = "x86_64-pc-linux-gnu"

%struct.RelationData = type { %struct.RelFileLocator, ptr, i32, i32, i8, i8, i8, i8, i8, i32, i32, i32, i32, ptr, ptr, i32, %struct.LockInfoData, ptr, ptr, ptr, ptr, ptr, i8, ptr, ptr, ptr, ptr, ptr, ptr, i32, ptr, i8, ptr, ptr, i32, i8, i32, ptr, i8, ptr, ptr, ptr, ptr, ptr, ptr, ptr, i32, ptr, ptr, ptr, ptr, ptr, ptr, ptr, ptr, ptr, ptr, ptr, ptr, ptr, ptr, ptr, ptr, ptr, ptr, ptr, i32, i8, ptr }
%struct.RelFileLocator = type { i32, i32, i32 }
%struct.LockInfoData = type { %struct.LockRelId }
%struct.LockRelId = type { i32, i32 }
%struct.FormData_pg_class = type { i32, %struct.nameData, i32, i32, i32, i32, i32, i32, i32, i32, float, i32, i32, i8, i8, i8, i8, i16, i16, i8, i8, i8, i8, i8, i8, i8, i8, i32, i32, i32 }
%struct.nameData = type { [64 x i8] }
%struct.List = type { i32, i32, i32, ptr, [0 x %union.ListCell] }
%union.ListCell = type { ptr }

@.str.1 = private unnamed_addr constant [12 x i8] c"pg_depend.c\00", align 1
@.str.6 = private unnamed_addr constant [54 x i8] c"cache lookup failed for attribute \22%s\22 of relation %u\00", align 1
@__func__.getIdentitySequence = private unnamed_addr constant [20 x i8] c"getIdentitySequence\00", align 1
@.str.7 = private unnamed_addr constant [35 x i8] c"more than one owned sequence found\00", align 1
@.str.8 = private unnamed_addr constant [24 x i8] c"no owned sequence found\00", align 1

; Function Attrs: inlinehint nounwind uwtable
define internal ptr @list_nth_cell(ptr noundef %0, i32 noundef %1) #3 {
  %3 = alloca ptr, align 8
  %4 = alloca i32, align 4
  store ptr %0, ptr %3, align 8
  store i32 %1, ptr %4, align 4
  %5 = load ptr, ptr %3, align 8
  %6 = getelementptr inbounds nuw %struct.List, ptr %5, i32 0, i32 3
  %7 = load ptr, ptr %6, align 8
  %8 = load i32, ptr %4, align 4
  %9 = sext i32 %8 to i64
  %10 = getelementptr inbounds %union.ListCell, ptr %7, i64 %9
  ret ptr %10
}

; Function Attrs: inlinehint nounwind uwtable
define internal i32 @list_length(ptr noundef %0) #3 {
  %2 = alloca ptr, align 8
  store ptr %0, ptr %2, align 8
  %3 = load ptr, ptr %2, align 8
  %4 = icmp ne ptr %3, null
  br i1 %4, label %5, label %9

5:                                                ; preds = %1
  %6 = load ptr, ptr %2, align 8
  %7 = getelementptr inbounds nuw %struct.List, ptr %6, i32 0, i32 1
  %8 = load i32, ptr %7, align 4
  br label %10

9:                                                ; preds = %1
  br label %10

10:                                               ; preds = %9, %5
  %11 = phi i32 [ %8, %5 ], [ 0, %9 ]
  ret i32 %11
}

; Function Attrs: inlinehint nounwind uwtable
define internal ptr @list_last_cell(ptr noundef %0) #3 {
  %2 = alloca ptr, align 8
  store ptr %0, ptr %2, align 8
  %3 = load ptr, ptr %2, align 8
  %4 = getelementptr inbounds nuw %struct.List, ptr %3, i32 0, i32 3
  %5 = load ptr, ptr %4, align 8
  %6 = load ptr, ptr %2, align 8
  %7 = getelementptr inbounds nuw %struct.List, ptr %6, i32 0, i32 1
  %8 = load i32, ptr %7, align 4
  %9 = sub i32 %8, 1
  %10 = sext i32 %9 to i64
  %11 = getelementptr inbounds %union.ListCell, ptr %5, i64 %10
  ret ptr %11
}

; Function Attrs: nounwind uwtable
define dso_local i32 @getIdentitySequence(ptr noundef %0, i16 noundef signext %1, i1 noundef zeroext %2) #0 {
  %4 = alloca i32, align 4
  %5 = alloca ptr, align 8
  %6 = alloca i16, align 2
  %7 = alloca i8, align 1
  %8 = alloca i32, align 4
  %9 = alloca ptr, align 8
  %10 = alloca ptr, align 8
  %11 = alloca ptr, align 8
  %12 = alloca i32, align 4
  store ptr %0, ptr %5, align 8
  store i16 %1, ptr %6, align 2
  %13 = zext i1 %2 to i8
  store i8 %13, ptr %7, align 1
  call void @llvm.lifetime.start.p0(i64 4, ptr %8) #6
  %14 = load ptr, ptr %5, align 8
  %15 = getelementptr inbounds nuw %struct.RelationData, ptr %14, i32 0, i32 15
  %16 = load i32, ptr %15, align 8
  store i32 %16, ptr %8, align 4
  call void @llvm.lifetime.start.p0(i64 8, ptr %9) #6
  %17 = load ptr, ptr %5, align 8
  %18 = getelementptr inbounds nuw %struct.RelationData, ptr %17, i32 0, i32 13
  %19 = load ptr, ptr %18, align 8
  %20 = getelementptr inbounds nuw %struct.FormData_pg_class, ptr %19, i32 0, i32 26
  %21 = load i8, ptr %20, align 1, !range !7, !noundef !8
  %22 = trunc i8 %21 to i1
  br i1 %22, label %23, label %53

23:                                               ; preds = %3
  call void @llvm.lifetime.start.p0(i64 8, ptr %10) #6
  %24 = load i32, ptr %8, align 4
  %25 = call ptr @get_partition_ancestors(i32 noundef %24)
  store ptr %25, ptr %10, align 8
  call void @llvm.lifetime.start.p0(i64 8, ptr %11) #6
  %26 = load i32, ptr %8, align 4
  %27 = load i16, ptr %6, align 2
  %28 = call ptr @get_attname(i32 noundef %26, i16 noundef signext %27, i1 noundef zeroext false)
  store ptr %28, ptr %11, align 8
  %29 = load ptr, ptr %10, align 8
  %30 = call ptr @list_last_cell(ptr noundef %29)
  %31 = load i32, ptr %30, align 8
  store i32 %31, ptr %8, align 4
  %32 = load i32, ptr %8, align 4
  %33 = load ptr, ptr %11, align 8
  %34 = call signext i16 @get_attnum(i32 noundef %32, ptr noundef %33)
  store i16 %34, ptr %6, align 2
  %35 = load i16, ptr %6, align 2
  %36 = sext i16 %35 to i32
  %37 = icmp eq i32 %36, 0
  br i1 %37, label %38, label %51

38:                                               ; preds = %23
  br label %39

39:                                               ; preds = %38
  br i1 true, label %40, label %42

40:                                               ; preds = %39
  %41 = call zeroext i1 @errstart_cold(i32 noundef 21, ptr noundef null) #7
  br i1 %41, label %44, label %48

42:                                               ; preds = %39
  %43 = call zeroext i1 @errstart(i32 noundef 21, ptr noundef null)
  br i1 %43, label %44, label %48

44:                                               ; preds = %42, %40
  %45 = load ptr, ptr %11, align 8
  %46 = load i32, ptr %8, align 4
  %47 = call i32 (ptr, ...) @errmsg_internal(ptr noundef @.str.6, ptr noundef %45, i32 noundef %46)
  call void @errfinish(ptr noundef @.str.1, i32 noundef 963, ptr noundef @__func__.getIdentitySequence)
  br label %48

48:                                               ; preds = %44, %42, %40
  unreachable

49:                                               ; No predecessors!
  br label %50

50:                                               ; preds = %49
  br label %51

51:                                               ; preds = %50, %23
  %52 = load ptr, ptr %10, align 8
  call void @list_free(ptr noundef %52)
  call void @llvm.lifetime.end.p0(i64 8, ptr %11) #6
  call void @llvm.lifetime.end.p0(i64 8, ptr %10) #6
  br label %53

53:                                               ; preds = %51, %3
  %54 = load i32, ptr %8, align 4
  %55 = load i16, ptr %6, align 2
  %56 = call ptr @getOwnedSequences_internal(i32 noundef %54, i16 noundef signext %55, i8 noundef signext 105)
  store ptr %56, ptr %9, align 8
  %57 = load ptr, ptr %9, align 8
  %58 = call i32 @list_length(ptr noundef %57)
  %59 = icmp sgt i32 %58, 1
  br i1 %59, label %60, label %71

60:                                               ; preds = %53
  br label %61

61:                                               ; preds = %60
  br i1 true, label %62, label %64

62:                                               ; preds = %61
  %63 = call zeroext i1 @errstart_cold(i32 noundef 21, ptr noundef null) #7
  br i1 %63, label %66, label %68

64:                                               ; preds = %61
  %65 = call zeroext i1 @errstart(i32 noundef 21, ptr noundef null)
  br i1 %65, label %66, label %68

66:                                               ; preds = %64, %62
  %67 = call i32 (ptr, ...) @errmsg_internal(ptr noundef @.str.7)
  call void @errfinish(ptr noundef @.str.1, i32 noundef 969, ptr noundef @__func__.getIdentitySequence)
  br label %68

68:                                               ; preds = %66, %64, %62
  unreachable

69:                                               ; No predecessors!
  br label %70

70:                                               ; preds = %69
  br label %91

71:                                               ; preds = %53
  %72 = load ptr, ptr %9, align 8
  %73 = icmp eq ptr %72, null
  br i1 %73, label %74, label %90

74:                                               ; preds = %71
  %75 = load i8, ptr %7, align 1, !range !7, !noundef !8
  %76 = trunc i8 %75 to i1
  br i1 %76, label %77, label %78

77:                                               ; preds = %74
  store i32 0, ptr %4, align 4
  store i32 1, ptr %12, align 4
  br label %95

78:                                               ; preds = %74
  br label %79

79:                                               ; preds = %78
  br i1 true, label %80, label %82

80:                                               ; preds = %79
  %81 = call zeroext i1 @errstart_cold(i32 noundef 21, ptr noundef null) #7
  br i1 %81, label %84, label %86

82:                                               ; preds = %79
  %83 = call zeroext i1 @errstart(i32 noundef 21, ptr noundef null)
  br i1 %83, label %84, label %86

84:                                               ; preds = %82, %80
  %85 = call i32 (ptr, ...) @errmsg_internal(ptr noundef @.str.8)
  call void @errfinish(ptr noundef @.str.1, i32 noundef 975, ptr noundef @__func__.getIdentitySequence)
  br label %86

86:                                               ; preds = %84, %82, %80
  unreachable

87:                                               ; No predecessors!
  br label %88

88:                                               ; preds = %87
  br label %89

89:                                               ; preds = %88
  br label %90

90:                                               ; preds = %89, %71
  br label %91

91:                                               ; preds = %90, %70
  %92 = load ptr, ptr %9, align 8
  %93 = call ptr @list_nth_cell(ptr noundef %92, i32 noundef 0)
  %94 = load i32, ptr %93, align 8
  store i32 %94, ptr %4, align 4
  store i32 1, ptr %12, align 4
  br label %95

95:                                               ; preds = %91, %77
  call void @llvm.lifetime.end.p0(i64 8, ptr %9) #6
  call void @llvm.lifetime.end.p0(i64 4, ptr %8) #6
  %96 = load i32, ptr %4, align 4
  ret i32 %96
}