; Function Attrs: nounwind uwtable
define dso_local i32 @getIdentitySequence(ptr noundef readonly captures(none) %0, i16 noundef signext %1, i1 noundef zeroext %2) local_unnamed_addr #0 {
  %4 = getelementptr inbounds nuw i8, ptr %0, i64 72
  %5 = load i32, ptr %4, align 8
  %6 = getelementptr inbounds nuw i8, ptr %0, i64 56
  %7 = load ptr, ptr %6, align 8
  %8 = getelementptr inbounds nuw i8, ptr %7, i64 127
  %9 = load i8, ptr %8, align 1, !range !7, !noundef !8
  %10 = trunc nuw i8 %9 to i1
  br i1 %10, label %11, label %26

11:                                               ; preds = %3
  %12 = tail call ptr @get_partition_ancestors(i32 noundef %5) #7
  %13 = tail call ptr @get_attname(i32 noundef %5, i16 noundef signext %1, i1 noundef zeroext false) #7
  %14 = getelementptr i8, ptr %12, i64 4
  %.val = load i32, ptr %14, align 4
  %15 = getelementptr i8, ptr %12, i64 16
  %.val21 = load ptr, ptr %15, align 8
  %16 = add i32 %.val, -1
  %17 = sext i32 %16 to i64
  %18 = getelementptr inbounds %union.ListCell, ptr %.val21, i64 %17
  %19 = load i32, ptr %18, align 8
  %20 = tail call signext i16 @get_attnum(i32 noundef %19, ptr noundef %13) #7
  %21 = icmp eq i16 %20, 0
  br i1 %21, label %22, label %25

22:                                               ; preds = %11
  %23 = tail call zeroext i1 @errstart_cold(i32 noundef 21, ptr noundef null) #8
  tail call void @llvm.assume(i1 %23)
  %24 = tail call i32 (ptr, ...) @errmsg_internal(ptr noundef nonnull @.str.6, ptr noundef %13, i32 noundef %19) #7
  tail call void @errfinish(ptr noundef nonnull @.str.1, i32 noundef 963, ptr noundef nonnull @__func__.getIdentitySequence) #7
  unreachable

25:                                               ; preds = %11
  tail call void @list_free(ptr noundef nonnull %12) #7
  br label %26

26:                                               ; preds = %25, %3
  %.019 = phi i32 [ %19, %25 ], [ %5, %3 ]
  %.018 = phi i16 [ %20, %25 ], [ %1, %3 ]
  %27 = tail call fastcc ptr @getOwnedSequences_internal(i32 noundef %.019, i16 noundef signext %.018, i8 noundef signext 105)
  %.not.i = icmp eq ptr %27, null
  br i1 %.not.i, label %34, label %list_length.exit

list_length.exit:                                 ; preds = %26
  %28 = getelementptr inbounds nuw i8, ptr %27, i64 4
  %29 = load i32, ptr %28, align 4
  %30 = icmp sgt i32 %29, 1
  br i1 %30, label %31, label %38

31:                                               ; preds = %list_length.exit
  %32 = tail call zeroext i1 @errstart_cold(i32 noundef 21, ptr noundef null) #8
  tail call void @llvm.assume(i1 %32)
  %33 = tail call i32 (ptr, ...) @errmsg_internal(ptr noundef nonnull @.str.7) #7
  tail call void @errfinish(ptr noundef nonnull @.str.1, i32 noundef 969, ptr noundef nonnull @__func__.getIdentitySequence) #7
  unreachable

34:                                               ; preds = %26
  br i1 %2, label %41, label %35

35:                                               ; preds = %34
  %36 = tail call zeroext i1 @errstart_cold(i32 noundef 21, ptr noundef null) #8
  tail call void @llvm.assume(i1 %36)
  %37 = tail call i32 (ptr, ...) @errmsg_internal(ptr noundef nonnull @.str.8) #7
  tail call void @errfinish(ptr noundef nonnull @.str.1, i32 noundef 975, ptr noundef nonnull @__func__.getIdentitySequence) #7
  unreachable

38:                                               ; preds = %list_length.exit
  %39 = getelementptr i8, ptr %27, i64 16
  %.val22 = load ptr, ptr %39, align 8
  %40 = load i32, ptr %.val22, align 8
  br label %41

41:                                               ; preds = %34, %38
  %.0 = phi i32 [ %40, %38 ], [ 0, %34 ]
  ret i32 %.0
}